target datalayout = "e-m:e-p270:32:32-p271:32:32-p272:64:64-i64:64-i128:128-f80:128-n8:16:32:64-S128"
target triple = "x86_64-pc-linux-gnu"

%struct.PROV_ECX_CTX = type { i64, ptr, ptr }

; Function Attrs: nounwind uwtable
define internal i32 @ecx_derive(ptr noundef %0, ptr noundef %1, ptr noundef %2, i64 noundef %3) #0 {
  %5 = alloca i32, align 4
  %6 = alloca ptr, align 8
  %7 = alloca ptr, align 8
  %8 = alloca ptr, align 8
  %9 = alloca i64, align 8
  %10 = alloca ptr, align 8
  %11 = alloca i32, align 4
  store ptr %0, ptr %6, align 8, !tbaa !3
  store ptr %1, ptr %7, align 8, !tbaa !9
  store ptr %2, ptr %8, align 8, !tbaa !11
  store i64 %3, ptr %9, align 8, !tbaa !13
  call void @llvm.lifetime.start.p0(i64 8, ptr %10) #4
  %12 = load ptr, ptr %6, align 8, !tbaa !3
  store ptr %12, ptr %10, align 8, !tbaa !3
  %13 = call i32 @ossl_prov_is_running()
  %14 = icmp ne i32 %13, 0
  br i1 %14, label %16, label %15

15:                                               ; preds = %4
  store i32 0, ptr %5, align 4
  store i32 1, ptr %11, align 4
  br label %30

16:                                               ; preds = %4
  %17 = load ptr, ptr %10, align 8, !tbaa !3
  %18 = getelementptr inbounds nuw %struct.PROV_ECX_CTX, ptr %17, i32 0, i32 2
  %19 = load ptr, ptr %18, align 8, !tbaa !15
  %20 = load ptr, ptr %10, align 8, !tbaa !3
  %21 = getelementptr inbounds nuw %struct.PROV_ECX_CTX, ptr %20, i32 0, i32 1
  %22 = load ptr, ptr %21, align 8, !tbaa !18
  %23 = load ptr, ptr %10, align 8, !tbaa !3
  %24 = getelementptr inbounds nuw %struct.PROV_ECX_CTX, ptr %23, i32 0, i32 0
  %25 = load i64, ptr %24, align 8, !tbaa !19
  %26 = load ptr, ptr %7, align 8, !tbaa !9
  %27 = load ptr, ptr %8, align 8, !tbaa !11
  %28 = load i64, ptr %9, align 8, !tbaa !13
  %29 = call i32 @ossl_ecx_compute_key(ptr noundef %19, ptr noundef %22, i64 noundef %25, ptr noundef %26, ptr noundef %27, i64 noundef %28)
  store i32 %29, ptr %5, align 4
  store i32 1, ptr %11, align 4
  br label %30

30:                                               ; preds = %16, %15
  call void @llvm.lifetime.end.p0(i64 8, ptr %10) #4
  %31 = load i32, ptr %5, align 4
  ret i32 %31
}