; Function Attrs: nounwind uwtable
define internal i32 @ecx_derive(ptr noundef readonly captures(none) %0, ptr noundef %1, ptr noundef %2, i64 noundef %3) #0 {
  %5 = tail call i32 @ossl_prov_is_running() #4
  %.not = icmp eq i32 %5, 0
  br i1 %.not, label %13, label %6

6:                                                ; preds = %4
  %7 = getelementptr inbounds nuw i8, ptr %0, i64 16
  %8 = load ptr, ptr %7, align 8, !tbaa !10
  %9 = getelementptr inbounds nuw i8, ptr %0, i64 8
  %10 = load ptr, ptr %9, align 8, !tbaa !11
  %11 = load i64, ptr %0, align 8, !tbaa !3
  %12 = tail call i32 @ossl_ecx_compute_key(ptr noundef %8, ptr noundef %10, i64 noundef %11, ptr noundef %1, ptr noundef %2, i64 noundef %3) #4
  br label %13

13:                                               ; preds = %4, %6
  %.0 = phi i32 [ %12, %6 ], [ 0, %4 ]
  ret i32 %.0
}